; ModuleID = '10/2101.c'
source_filename = "10/2101.c"
target datalayout = "e-m:e-p270:32:32-p271:32:32-p272:64:64-i64:64-f80:128-n8:16:32:64-S128"
target triple = "x86_64-pc-linux-gnu"

%struct._IO_FILE = type { i32, i8*, i8*, i8*, i8*, i8*, i8*, i8*, i8*, i8*, i8*, i8*, %struct._IO_marker*, %struct._IO_FILE*, i32, i32, i64, i16, i8, [1 x i8], i8*, i64, %struct._IO_codecvt*, %struct._IO_wide_data*, %struct._IO_FILE*, i8*, i64, i32, [20 x i8] }
%struct._IO_marker = type opaque
%struct._IO_codecvt = type opaque
%struct._IO_wide_data = type opaque

@k = dso_local global i32 0, align 4
@dp = common dso_local global [100 x i32] zeroinitializer, align 16
@a = common dso_local global [100 x i32] zeroinitializer, align 16
@.str = private unnamed_addr constant [10 x i8] c"input.txt\00", align 1
@.str.1 = private unnamed_addr constant [2 x i8] c"r\00", align 1
@stdin = external dso_local global %struct._IO_FILE*, align 8
@.str.2 = private unnamed_addr constant [11 x i8] c"output.txt\00", align 1
@.str.3 = private unnamed_addr constant [2 x i8] c"w\00", align 1
@stdout = external dso_local global %struct._IO_FILE*, align 8
@.str.4 = private unnamed_addr constant [3 x i8] c"%d\00", align 1
@.str.5 = private unnamed_addr constant [4 x i8] c"%d\0A\00", align 1

; Function Attrs: noinline nounwind uwtable
define dso_local i32 @solve() #0 {
  %1 = alloca i32, align 4
  %2 = alloca i32, align 4
  %3 = alloca i32, align 4
  store i32 0, i32* %1, align 4
  store i32 1, i32* getelementptr inbounds ([100 x i32], [100 x i32]* @dp, i64 0, i64 0), align 16
  store i32 1, i32* %2, align 4
  br label %4

4:                                                ; preds = %63, %0
  %5 = load i32, i32* %2, align 4
  %6 = load i32, i32* @k, align 4
  %7 = icmp slt i32 %5, %6
  br i1 %7, label %8, label %66

8:                                                ; preds = %4
  %9 = load i32, i32* %2, align 4
  %10 = sext i32 %9 to i64
  %11 = getelementptr inbounds [100 x i32], [100 x i32]* @dp, i64 0, i64 %10
  store i32 1, i32* %11, align 4
  store i32 0, i32* %3, align 4
  br label %12

12:                                               ; preds = %47, %8
  %13 = load i32, i32* %3, align 4
  %14 = load i32, i32* %2, align 4
  %15 = icmp slt i32 %13, %14
  br i1 %15, label %16, label %50

16:                                               ; preds = %12
  %17 = load i32, i32* %3, align 4
  %18 = sext i32 %17 to i64
  %19 = getelementptr inbounds [100 x i32], [100 x i32]* @a, i64 0, i64 %18
  %20 = load i32, i32* %19, align 4
  %21 = load i32, i32* %2, align 4
  %22 = sext i32 %21 to i64
  %23 = getelementptr inbounds [100 x i32], [100 x i32]* @a, i64 0, i64 %22
  %24 = load i32, i32* %23, align 4
  %25 = icmp sge i32 %20, %24
  br i1 %25, label %26, label %46

26:                                               ; preds = %16
  %27 = load i32, i32* %3, align 4
  %28 = sext i32 %27 to i64
  %29 = getelementptr inbounds [100 x i32], [100 x i32]* @dp, i64 0, i64 %28
  %30 = load i32, i32* %29, align 4
  %31 = add nsw i32 %30, 1
  %32 = load i32, i32* %2, align 4
  %33 = sext i32 %32 to i64
  %34 = getelementptr inbounds [100 x i32], [100 x i32]* @dp, i64 0, i64 %33
  %35 = load i32, i32* %34, align 4
  %36 = icmp sgt i32 %31, %35
  br i1 %36, label %37, label %46

37:                                               ; preds = %26
  %38 = load i32, i32* %3, align 4
  %39 = sext i32 %38 to i64
  %40 = getelementptr inbounds [100 x i32], [100 x i32]* @dp, i64 0, i64 %39
  %41 = load i32, i32* %40, align 4
  %42 = add nsw i32 %41, 1
  %43 = load i32, i32* %2, align 4
  %44 = sext i32 %43 to i64
  %45 = getelementptr inbounds [100 x i32], [100 x i32]* @dp, i64 0, i64 %44
  store i32 %42, i32* %45, align 4
  br label %46

46:                                               ; preds = %37, %26, %16
  br label %47

47:                                               ; preds = %46
  %48 = load i32, i32* %3, align 4
  %49 = add nsw i32 %48, 1
  store i32 %49, i32* %3, align 4
  br label %12

50:                                               ; preds = %12
  %51 = load i32, i32* %2, align 4
  %52 = sext i32 %51 to i64
  %53 = getelementptr inbounds [100 x i32], [100 x i32]* @dp, i64 0, i64 %52
  %54 = load i32, i32* %53, align 4
  %55 = load i32, i32* %1, align 4
  %56 = icmp sgt i32 %54, %55
  br i1 %56, label %57, label %62

57:                                               ; preds = %50
  %58 = load i32, i32* %2, align 4
  %59 = sext i32 %58 to i64
  %60 = getelementptr inbounds [100 x i32], [100 x i32]* @dp, i64 0, i64 %59
  %61 = load i32, i32* %60, align 4
  store i32 %61, i32* %1, align 4
  br label %62

62:                                               ; preds = %57, %50
  br label %63

63:                                               ; preds = %62
  %64 = load i32, i32* %2, align 4
  %65 = add nsw i32 %64, 1
  store i32 %65, i32* %2, align 4
  br label %4

66:                                               ; preds = %4
  %67 = load i32, i32* %1, align 4
  ret i32 %67
}

; Function Attrs: noinline nounwind uwtable
define dso_local i32 @main() #0 {
  %1 = alloca i32, align 4
  %2 = alloca i32, align 4
  store i32 0, i32* %1, align 4
  %3 = load %struct._IO_FILE*, %struct._IO_FILE** @stdin, align 8
  %4 = call %struct._IO_FILE* @freopen(i8* getelementptr inbounds ([10 x i8], [10 x i8]* @.str, i64 0, i64 0), i8* getelementptr inbounds ([2 x i8], [2 x i8]* @.str.1, i64 0, i64 0), %struct._IO_FILE* %3)
  %5 = load %struct._IO_FILE*, %struct._IO_FILE** @stdout, align 8
  %6 = call %struct._IO_FILE* @freopen(i8* getelementptr inbounds ([11 x i8], [11 x i8]* @.str.2, i64 0, i64 0), i8* getelementptr inbounds ([2 x i8], [2 x i8]* @.str.3, i64 0, i64 0), %struct._IO_FILE* %5)
  %7 = call i32 (i8*, ...) @__isoc99_scanf(i8* getelementptr inbounds ([3 x i8], [3 x i8]* @.str.4, i64 0, i64 0), i32* @k)
  store i32 0, i32* %2, align 4
  br label %8

8:                                                ; preds = %17, %0
  %9 = load i32, i32* %2, align 4
  %10 = load i32, i32* @k, align 4
  %11 = icmp slt i32 %9, %10
  br i1 %11, label %12, label %20

12:                                               ; preds = %8
  %13 = load i32, i32* %2, align 4
  %14 = sext i32 %13 to i64
  %15 = getelementptr inbounds [100 x i32], [100 x i32]* @a, i64 0, i64 %14
  %16 = call i32 (i8*, ...) @__isoc99_scanf(i8* getelementptr inbounds ([3 x i8], [3 x i8]* @.str.4, i64 0, i64 0), i32* %15)
  br label %17

17:                                               ; preds = %12
  %18 = load i32, i32* %2, align 4
  %19 = add nsw i32 %18, 1
  store i32 %19, i32* %2, align 4
  br label %8

20:                                               ; preds = %8
  %21 = call i32 @solve()
  %22 = call i32 (i8*, ...) @printf(i8* getelementptr inbounds ([4 x i8], [4 x i8]* @.str.5, i64 0, i64 0), i32 %21)
  ret i32 0
}

declare dso_local %struct._IO_FILE* @freopen(i8*, i8*, %struct._IO_FILE*) #1

declare dso_local i32 @__isoc99_scanf(i8*, ...) #1

declare dso_local i32 @printf(i8*, ...) #1


!llvm.module.flags = !{!0}
!llvm.ident = !{!1}

!0 = !{i32 1, !"wchar_size", i32 4}
!1 = !{!"clang version 10.0.0-4ubuntu1 "}
